target datalayout = "e-m:e-p270:32:32-p271:32:32-p272:64:64-i64:64-i128:128-f80:128-n8:16:32:64-S128"
target triple = "x86_64-pc-linux-gnu"

%struct.wtap_blocktype_t = type { i32, ptr, ptr, ptr, ptr, ptr, ptr }

@blocktype_list = internal global [12 x ptr] zeroinitializer, align 16

; Function Attrs: null_pointer_is_valid sspstrong uwtable
define void @wtap_opttypes_cleanup() #0 {
  %1 = alloca i32, align 4
  call void @llvm.lifetime.start.p0(i64 4, ptr %1) #15
  store i32 0, ptr %1, align 4
  br label %2

2:                                                ; preds = %31, %0
  %3 = load i32, ptr %1, align 4
  %4 = icmp ult i32 %3, 12
  br i1 %4, label %5, label %34

5:                                                ; preds = %2
  %6 = load i32, ptr %1, align 4
  %7 = zext i32 %6 to i64
  %8 = getelementptr [12 x ptr], ptr @blocktype_list, i64 0, i64 %7
  %9 = load ptr, ptr %8, align 8
  %10 = icmp ne ptr %9, null
  br i1 %10, label %11, label %30

11:                                               ; preds = %5
  %12 = load i32, ptr %1, align 4
  %13 = zext i32 %12 to i64
  %14 = getelementptr [12 x ptr], ptr @blocktype_list, i64 0, i64 %13
  %15 = load ptr, ptr %14, align 8
  %16 = getelementptr inbounds nuw %struct.wtap_blocktype_t, ptr %15, i32 0, i32 6
  %17 = load ptr, ptr %16, align 8
  %18 = icmp ne ptr %17, null
  br i1 %18, label %19, label %26

19:                                               ; preds = %11
  %20 = load i32, ptr %1, align 4
  %21 = zext i32 %20 to i64
  %22 = getelementptr [12 x ptr], ptr @blocktype_list, i64 0, i64 %21
  %23 = load ptr, ptr %22, align 8
  %24 = getelementptr inbounds nuw %struct.wtap_blocktype_t, ptr %23, i32 0, i32 6
  %25 = load ptr, ptr %24, align 8
  call void @g_hash_table_destroy(ptr noundef %25)
  br label %26

26:                                               ; preds = %19, %11
  %27 = load i32, ptr %1, align 4
  %28 = zext i32 %27 to i64
  %29 = getelementptr [12 x ptr], ptr @blocktype_list, i64 0, i64 %28
  store ptr null, ptr %29, align 8
  br label %30

30:                                               ; preds = %26, %5
  br label %31

31:                                               ; preds = %30
  %32 = load i32, ptr %1, align 4
  %33 = add i32 %32, 1
  store i32 %33, ptr %1, align 4
  br label %2, !llvm.loop !21

34:                                               ; preds = %2
  call void @llvm.lifetime.end.p0(i64 4, ptr %1) #15
  ret void
}