; Function Attrs: null_pointer_is_valid sspstrong uwtable
define void @wtap_opttypes_cleanup() local_unnamed_addr #0 {
  br label %1

1:                                                ; preds = %0, %9
  %indvars.iv = phi i64 [ 0, %0 ], [ %indvars.iv.next, %9 ]
  %2 = getelementptr [12 x ptr], ptr @blocktype_list, i64 0, i64 %indvars.iv
  %3 = load ptr, ptr %2, align 8
  %.not = icmp eq ptr %3, null
  br i1 %.not, label %9, label %4

4:                                                ; preds = %1
  %5 = getelementptr inbounds nuw i8, ptr %3, i64 48
  %6 = load ptr, ptr %5, align 8
  %.not8 = icmp eq ptr %6, null
  br i1 %.not8, label %8, label %7

7:                                                ; preds = %4
  tail call void @g_hash_table_destroy(ptr noundef nonnull %6)
  br label %8

8:                                                ; preds = %7, %4
  store ptr null, ptr %2, align 8
  br label %9

9:                                                ; preds = %1, %8
  %indvars.iv.next = add nuw nsw i64 %indvars.iv, 1
  %exitcond.not = icmp eq i64 %indvars.iv.next, 12
  br i1 %exitcond.not, label %10, label %1, !llvm.loop !29

10:                                               ; preds = %9
  ret void
}